Certificate:
    Data:
        Version: 1 (0x0)
        Serial Number:
            31:8e:c8:2d:ba:01:b5:15:28:04:3c:a1:dd:33:ab:5a:27:5f:ab:c8
        Signature Algorithm: NULL
        Issuer: CN = mx1.example.com
        Validity
            Not Before: May 16 21:18:03 2020 GMT
            Not After : May 14 21:18:03 2030 GMT
        Subject: CN = mx1.example.com
        Subject Public Key Info:
            Public Key Algorithm: rsaEncryption
                RSA Public-Key: (2048 bit)
                Modulus:
                    00:bb:05:07:48:02:d7:58:03:ef:92:44:8e:4c:c6:
                    27:ba:90:d5:99:fc:56:81:b1:a8:86:9a:8f:72:25:
                    8d:57:fb:88:91:85:51:5d:0a:6e:5a:f4:a4:fd:05:
                    1e:34:e6:69:01:da:1a:e4:1d:ac:83:24:13:ed:2b:
                    19:9a:5d:95:8b:ad:ad:a9:78:63:b7:73:66:84:68:
                    c8:9d:ea:f2:fc:50:cc:59:7a:48:78:ea:a1:84:7f:
                    4b:78:fe:d2:b3:1c:19:17:e2:cf:7d:b4:83:44:0a:
                    de:b6:ca:74:49:3f:43:96:3a:76:5a:c2:c1:99:a6:
                    bd:c9:a9:be:03:d7:8e:ee:b2:d4:1d:f0:58:50:64:
                    2a:19:8b:ff:c7:c2:73:30:fe:e1:93:3c:78:ca:eb:
                    84:a4:86:8b:21:68:cb:9f:99:7d:08:a4:22:b0:09:
                    db:7d:09:2c:05:f4:08:c9:a9:c7:2e:17:56:f7:38:
                    a0:3e:7c:87:4e:ab:73:db:90:2b:b1:ad:2c:65:bc:
                    d7:81:91:bf:10:1a:e1:b7:f7:fa:aa:45:67:ea:4b:
                    6c:32:0a:a0:07:ee:c1:18:dc:ef:87:64:2f:38:29:
                    e4:9b:99:6d:54:0a:e5:5d:17:ff:8b:93:93:99:41:
                    1f:d7:f7:75:c6:42:3b:4c:54:33:df:b3:b5:02:5f:
                    82:db
                Exponent: 65537 (0x10001)
    Signature Algorithm: NULL
-----BEGIN CERTIFICATE-----
MIICtzCCAZ8CFGRw6yad+vUwLqDiy4+RbV7yHKOiMA0GCSqGSIb3DQEBCwUAMBYx
FDASBgNVBAMMC2dlbl9zbXRwIENBMB4XDTIwMDUxNjIxMTgwM1oXDTMwMDUxNDIx
MTgwM1owGjEYMBYGA1UEAwwPbXgxLmV4YW1wbGUuY29tMIIBIjANBgkqhkiG9w0B
AQEFAAOCAQ8AMIIBCgKCAQEAuwUHSALXWAPvkkSOTMYnupDVmfxWgbGohpqPciWN
V/uIkYVRXQpuWvSk/QUeNOZpAdoa5B2sgyQT7SsZml2Vi62tqXhjt3NmhGjInery
/FDMWXpIeOqhhH9LeP7SsxwZF+LPfbSDRAretsp0ST9Dljp2WsLBmaa9yam+A9eO
7rLUHfBYUGQqGYv/x8JzMP7hkzx4yuuEpIaLIWjLn5l9CKQisAnbfQksBfQIyanH
LhdW9zigPnyHTqtz25Arsa0sZbzXgZG/EBrht/f6qkVn6ktsMgqgB+7BGNzvh2Qv
OCnkm5ltVArlXRf/i5OTmUEf1/d1xkI7TFQz37O1Al+C2wIDAQABMA0GCSqGSIb3
DQEBCwUAA4IBAQAphvOZwnBGErH/BZYDb2Vl2VouW/UuB1dQagdSdLv5s6BFR8cf
YSEUo0w4e0rStlzQcifjcKsVa9s0dXTFscXuk4LV3fEdd1Jmt4fvYs9BEc4fFget
U6847me3jJ8cGi5OOzeVoyUNUV7/uj3xIde0nm+U03L52lrfdlsi2gM5486Z1crq
OlY6TQTPmbVBqMlGZUQ42jAtndJjyA9qqIH5xpfWUaoFr9hY7Qc2DSZFZb8BDTty
mRd2OjUiwCjInWN/LANSKWSUCveGUffIW+TZPhsuyNB5V1XS/zdLjS/BnAx6NLvr
G4m1Wbug20VRCNV4fAZGNOF5kw+miYrwZ0HS
-----END CERTIFICATE-----
